target datalayout = "e-m:e-p270:32:32-p271:32:32-p272:64:64-i64:64-i128:128-f80:128-n8:16:32:64-S128"
target triple = "x86_64-pc-linux-gnu"

%struct.AVDictionaryEntry = type { ptr, ptr }
%struct.AVOption = type { ptr, ptr, i32, i32, %union.anon.1, double, double, i32, ptr }
%union.anon.1 = type { i64 }

@.str.1 = private unnamed_addr constant [1 x i8] zeroinitializer, align 1
@.str.2 = private unnamed_addr constant [44 x i8] c"Codec AVOption %s (%s) is not a %s option.\0A\00", align 1
@.str.3 = private unnamed_addr constant [9 x i8] c"decoding\00", align 1
@.str.4 = private unnamed_addr constant [9 x i8] c"encoding\00", align 1

; Function Attrs: nounwind uwtable
define i32 @check_avoptions_used(ptr noundef %0, ptr noundef %1, ptr noundef %2, i32 noundef %3) #0 {
  %5 = alloca i32, align 4
  %6 = alloca ptr, align 8
  %7 = alloca ptr, align 8
  %8 = alloca ptr, align 8
  %9 = alloca i32, align 4
  %10 = alloca ptr, align 8
  %11 = alloca ptr, align 8
  %12 = alloca i32, align 4
  %13 = alloca ptr, align 8
  %14 = alloca ptr, align 8
  %15 = alloca ptr, align 8
  %16 = alloca ptr, align 8
  %17 = alloca ptr, align 8
  %18 = alloca i32, align 4
  store ptr %0, ptr %6, align 8, !tbaa !101
  store ptr %1, ptr %7, align 8, !tbaa !101
  store ptr %2, ptr %8, align 8, !tbaa !19
  store i32 %3, ptr %9, align 4, !tbaa !4
  call void @llvm.lifetime.start.p0(i64 8, ptr %10) #12
  %19 = call ptr @avcodec_get_class()
  store ptr %19, ptr %10, align 8, !tbaa !102
  call void @llvm.lifetime.start.p0(i64 8, ptr %11) #12
  %20 = call ptr @avformat_get_class()
  store ptr %20, ptr %11, align 8, !tbaa !102
  call void @llvm.lifetime.start.p0(i64 4, ptr %12) #12
  %21 = load i32, ptr %9, align 4, !tbaa !4
  %22 = icmp ne i32 %21, 0
  %23 = select i1 %22, i32 2, i32 1
  store i32 %23, ptr %12, align 4, !tbaa !4
  call void @llvm.lifetime.start.p0(i64 8, ptr %13) #12
  store ptr null, ptr %13, align 8, !tbaa !103
  br label %24

24:                                               ; preds = %107, %105, %4
  %25 = load ptr, ptr %6, align 8, !tbaa !101
  %26 = load ptr, ptr %13, align 8, !tbaa !103
  %27 = call ptr @av_dict_iterate(ptr noundef %25, ptr noundef %26)
  store ptr %27, ptr %13, align 8, !tbaa !103
  %28 = icmp ne ptr %27, null
  br i1 %28, label %29, label %108

29:                                               ; preds = %24
  call void @llvm.lifetime.start.p0(i64 8, ptr %14) #12
  call void @llvm.lifetime.start.p0(i64 8, ptr %15) #12
  call void @llvm.lifetime.start.p0(i64 8, ptr %16) #12
  call void @llvm.lifetime.start.p0(i64 8, ptr %17) #12
  %30 = load ptr, ptr %7, align 8, !tbaa !101
  %31 = load ptr, ptr %13, align 8, !tbaa !103
  %32 = getelementptr inbounds nuw %struct.AVDictionaryEntry, ptr %31, i32 0, i32 0
  %33 = load ptr, ptr %32, align 8, !tbaa !105
  %34 = call ptr @av_dict_get(ptr noundef %30, ptr noundef %33, ptr noundef null, i32 noundef 0)
  %35 = icmp ne ptr %34, null
  br i1 %35, label %36, label %37

36:                                               ; preds = %29
  store i32 2, ptr %18, align 4
  br label %105, !llvm.loop !107

37:                                               ; preds = %29
  %38 = load ptr, ptr %13, align 8, !tbaa !103
  %39 = getelementptr inbounds nuw %struct.AVDictionaryEntry, ptr %38, i32 0, i32 0
  %40 = load ptr, ptr %39, align 8, !tbaa !105
  %41 = call noalias ptr @av_strdup(ptr noundef %40)
  store ptr %41, ptr %16, align 8, !tbaa !108
  %42 = load ptr, ptr %16, align 8, !tbaa !108
  %43 = icmp ne ptr %42, null
  br i1 %43, label %45, label %44

44:                                               ; preds = %37
  store i32 -12, ptr %5, align 4
  store i32 1, ptr %18, align 4
  br label %105

45:                                               ; preds = %37
  %46 = load ptr, ptr %16, align 8, !tbaa !108
  %47 = call ptr @strchr(ptr noundef %46, i32 noundef 58) #14
  store ptr %47, ptr %17, align 8, !tbaa !108
  %48 = load ptr, ptr %17, align 8, !tbaa !108
  %49 = icmp ne ptr %48, null
  br i1 %49, label %50, label %52

50:                                               ; preds = %45
  %51 = load ptr, ptr %17, align 8, !tbaa !108
  store i8 0, ptr %51, align 1, !tbaa !8
  br label %52

52:                                               ; preds = %50, %45
  %53 = load ptr, ptr %16, align 8, !tbaa !108
  %54 = call ptr @av_opt_find(ptr noundef %10, ptr noundef %53, ptr noundef null, i32 noundef 0, i32 noundef 3)
  store ptr %54, ptr %14, align 8, !tbaa !109
  %55 = load ptr, ptr %16, align 8, !tbaa !108
  %56 = call ptr @av_opt_find(ptr noundef %11, ptr noundef %55, ptr noundef null, i32 noundef 0, i32 noundef 3)
  store ptr %56, ptr %15, align 8, !tbaa !109
  call void @av_freep(ptr noundef %16)
  %57 = load ptr, ptr %14, align 8, !tbaa !109
  %58 = icmp ne ptr %57, null
  br i1 %58, label %59, label %62

59:                                               ; preds = %52
  %60 = load ptr, ptr %15, align 8, !tbaa !109
  %61 = icmp ne ptr %60, null
  br i1 %61, label %62, label %63

62:                                               ; preds = %59, %52
  store i32 2, ptr %18, align 4
  br label %105, !llvm.loop !107

63:                                               ; preds = %59
  %64 = load ptr, ptr %14, align 8, !tbaa !109
  %65 = getelementptr inbounds nuw %struct.AVOption, ptr %64, i32 0, i32 7
  %66 = load i32, ptr %65, align 8, !tbaa !111
  %67 = load i32, ptr %12, align 4, !tbaa !4
  %68 = and i32 %66, %67
  %69 = icmp ne i32 %68, 0
  br i1 %69, label %89, label %70

70:                                               ; preds = %63
  %71 = load ptr, ptr %8, align 8, !tbaa !19
  %72 = load ptr, ptr %13, align 8, !tbaa !103
  %73 = getelementptr inbounds nuw %struct.AVDictionaryEntry, ptr %72, i32 0, i32 0
  %74 = load ptr, ptr %73, align 8, !tbaa !105
  %75 = load ptr, ptr %14, align 8, !tbaa !109
  %76 = getelementptr inbounds nuw %struct.AVOption, ptr %75, i32 0, i32 1
  %77 = load ptr, ptr %76, align 8, !tbaa !114
  %78 = icmp ne ptr %77, null
  br i1 %78, label %79, label %83

79:                                               ; preds = %70
  %80 = load ptr, ptr %14, align 8, !tbaa !109
  %81 = getelementptr inbounds nuw %struct.AVOption, ptr %80, i32 0, i32 1
  %82 = load ptr, ptr %81, align 8, !tbaa !114
  br label %84

83:                                               ; preds = %70
  br label %84

84:                                               ; preds = %83, %79
  %85 = phi ptr [ %82, %79 ], [ @.str.1, %83 ]
  %86 = load i32, ptr %9, align 4, !tbaa !4
  %87 = icmp ne i32 %86, 0
  %88 = select i1 %87, ptr @.str.3, ptr @.str.4
  call void (ptr, i32, ptr, ...) @av_log(ptr noundef %71, i32 noundef 16, ptr noundef @.str.2, ptr noundef %74, ptr noundef %85, ptr noundef %88)
  store i32 -22, ptr %5, align 4
  store i32 1, ptr %18, align 4
  br label %105

89:                                               ; preds = %63
  %90 = load ptr, ptr %8, align 8, !tbaa !19
  %91 = load ptr, ptr %13, align 8, !tbaa !103
  %92 = getelementptr inbounds nuw %struct.AVDictionaryEntry, ptr %91, i32 0, i32 0
  %93 = load ptr, ptr %92, align 8, !tbaa !105
  %94 = load ptr, ptr %14, align 8, !tbaa !109
  %95 = getelementptr inbounds nuw %struct.AVOption, ptr %94, i32 0, i32 1
  %96 = load ptr, ptr %95, align 8, !tbaa !114
  %97 = icmp ne ptr %96, null
  br i1 %97, label %98, label %102

98:                                               ; preds = %89
  %99 = load ptr, ptr %14, align 8, !tbaa !109
  %100 = getelementptr inbounds nuw %struct.AVOption, ptr %99, i32 0, i32 1
  %101 = load ptr, ptr %100, align 8, !tbaa !114
  br label %103

102:                                              ; preds = %89
  br label %103

103:                                              ; preds = %102, %98
  %104 = phi ptr [ %101, %98 ], [ @.str.1, %102 ]
  call void (ptr, i32, ptr, ...) @av_log(ptr noundef %90, i32 noundef 24, ptr noundef @.str.5, ptr noundef %93, ptr noundef %104)
  store i32 0, ptr %18, align 4
  br label %105

105:                                              ; preds = %103, %84, %62, %44, %36
  call void @llvm.lifetime.end.p0(i64 8, ptr %17) #12
  call void @llvm.lifetime.end.p0(i64 8, ptr %16) #12
  call void @llvm.lifetime.end.p0(i64 8, ptr %15) #12
  call void @llvm.lifetime.end.p0(i64 8, ptr %14) #12
  %106 = load i32, ptr %18, align 4
  switch i32 %106, label %109 [
    i32 0, label %107
    i32 2, label %24
  ]

107:                                              ; preds = %105
  br label %24, !llvm.loop !107

108:                                              ; preds = %24
  store i32 0, ptr %5, align 4
  store i32 1, ptr %18, align 4
  br label %109

109:                                              ; preds = %108, %105
  call void @llvm.lifetime.end.p0(i64 8, ptr %13) #12
  call void @llvm.lifetime.end.p0(i64 4, ptr %12) #12
  call void @llvm.lifetime.end.p0(i64 8, ptr %11) #12
  call void @llvm.lifetime.end.p0(i64 8, ptr %10) #12
  %110 = load i32, ptr %5, align 4
  ret i32 %110
}