; Function Attrs: nounwind uwtable
define range(i32 -22, 1) i32 @check_avoptions_used(ptr noundef %0, ptr noundef %1, ptr noundef %2, i32 noundef %3) local_unnamed_addr #0 {
  %5 = alloca ptr, align 8
  %6 = alloca ptr, align 8
  %7 = alloca ptr, align 8
  call void @llvm.lifetime.start.p0(i64 8, ptr nonnull %5) #17
  %8 = tail call ptr @avcodec_get_class() #17
  store ptr %8, ptr %5, align 8, !tbaa !95
  call void @llvm.lifetime.start.p0(i64 8, ptr nonnull %6) #17
  %9 = tail call ptr @avformat_get_class() #17
  store ptr %9, ptr %6, align 8, !tbaa !95
  %.not = icmp eq i32 %3, 0
  %10 = select i1 %.not, i32 1, i32 2
  %11 = tail call ptr @av_dict_iterate(ptr noundef %0, ptr noundef null) #17
  %.not3144 = icmp eq ptr %11, null
  br i1 %.not3144, label %.loopexit, label %.lr.ph

.lr.ph:                                           ; preds = %4, %38
  %12 = phi ptr [ %39, %38 ], [ %11, %4 ]
  call void @llvm.lifetime.start.p0(i64 8, ptr nonnull %7) #17
  %13 = load ptr, ptr %12, align 8, !tbaa !96
  %14 = call ptr @av_dict_get(ptr noundef %1, ptr noundef %13, ptr noundef null, i32 noundef 0) #17
  %.not32 = icmp eq ptr %14, null
  br i1 %.not32, label %15, label %38, !llvm.loop !98

15:                                               ; preds = %.lr.ph
  %16 = load ptr, ptr %12, align 8, !tbaa !96
  %17 = call noalias ptr @av_strdup(ptr noundef %16) #17
  store ptr %17, ptr %7, align 8, !tbaa !99
  %.not33 = icmp eq ptr %17, null
  br i1 %.not33, label %.thread, label %18

18:                                               ; preds = %15
  %19 = call ptr @strchr(ptr noundef nonnull dereferenceable(1) %17, i32 noundef 58) #19
  %.not34 = icmp eq ptr %19, null
  br i1 %.not34, label %21, label %20

20:                                               ; preds = %18
  store i8 0, ptr %19, align 1, !tbaa !4
  %.pre = load ptr, ptr %7, align 8, !tbaa !99
  br label %21

21:                                               ; preds = %20, %18
  %22 = phi ptr [ %.pre, %20 ], [ %17, %18 ]
  %23 = call ptr @av_opt_find(ptr noundef nonnull %5, ptr noundef %22, ptr noundef null, i32 noundef 0, i32 noundef 3) #17
  %24 = load ptr, ptr %7, align 8, !tbaa !99
  %25 = call ptr @av_opt_find(ptr noundef nonnull %6, ptr noundef %24, ptr noundef null, i32 noundef 0, i32 noundef 3) #17
  call void @av_freep(ptr noundef nonnull %7) #17
  %26 = icmp eq ptr %23, null
  %27 = icmp ne ptr %25, null
  %or.cond = select i1 %26, i1 true, i1 %27
  br i1 %or.cond, label %38, label %28, !llvm.loop !98

28:                                               ; preds = %21
  %29 = getelementptr inbounds nuw i8, ptr %23, i64 48
  %30 = load i32, ptr %29, align 8, !tbaa !100
  %31 = and i32 %30, %10
  %.not35 = icmp eq i32 %31, 0
  %32 = load ptr, ptr %12, align 8, !tbaa !96
  %33 = getelementptr inbounds nuw i8, ptr %23, i64 8
  %34 = load ptr, ptr %33, align 8, !tbaa !103
  %.not36 = icmp eq ptr %34, null
  %spec.select = select i1 %.not36, ptr @.str.1, ptr %34
  br i1 %.not35, label %35, label %37

35:                                               ; preds = %28
  %36 = select i1 %.not, ptr @.str.4, ptr @.str.3
  call void (ptr, i32, ptr, ...) @av_log(ptr noundef %2, i32 noundef 16, ptr noundef nonnull @.str.2, ptr noundef %32, ptr noundef nonnull %spec.select, ptr noundef nonnull %36) #17
  br label %.thread

37:                                               ; preds = %28
  call void (ptr, i32, ptr, ...) @av_log(ptr noundef %2, i32 noundef 24, ptr noundef nonnull @.str.5, ptr noundef %32, ptr noundef nonnull %spec.select) #17
  br label %38

.thread:                                          ; preds = %15, %35
  %.1.ph = phi i32 [ -22, %35 ], [ -12, %15 ]
  call void @llvm.lifetime.end.p0(i64 8, ptr nonnull %7) #17
  br label %.loopexit

38:                                               ; preds = %21, %.lr.ph, %37
  call void @llvm.lifetime.end.p0(i64 8, ptr nonnull %7) #17
  %39 = call ptr @av_dict_iterate(ptr noundef %0, ptr noundef nonnull %12) #17
  %.not31 = icmp eq ptr %39, null
  br i1 %.not31, label %.loopexit, label %.lr.ph

.loopexit:                                        ; preds = %38, %4, %.thread
  %.2 = phi i32 [ %.1.ph, %.thread ], [ 0, %4 ], [ 0, %38 ]
  call void @llvm.lifetime.end.p0(i64 8, ptr nonnull %6) #17
  call void @llvm.lifetime.end.p0(i64 8, ptr nonnull %5) #17
  ret i32 %.2
}